; ModuleID = '15/671.c'
source_filename = "15/671.c"
target datalayout = "e-m:e-p270:32:32-p271:32:32-p272:64:64-i64:64-f80:128-n8:16:32:64-S128"
target triple = "x86_64-pc-linux-gnu"

@.str = private unnamed_addr constant [3 x i8] c"%d\00", align 1
@cancer = common dso_local global [1000 x [1000 x i32]] zeroinitializer, align 16

; Function Attrs: noinline nounwind uwtable
define dso_local void @main() #0 {
  %1 = alloca i32, align 4
  %2 = alloca i32, align 4
  %3 = alloca i32, align 4
  %4 = alloca i32, align 4
  %5 = alloca i32, align 4
  %6 = alloca i32, align 4
  %7 = alloca i32, align 4
  %8 = alloca i32, align 4
  %9 = alloca i32, align 4
  store i32 0, i32* %8, align 4
  %10 = call i32 (i8*, ...) @__isoc99_scanf(i8* getelementptr inbounds ([3 x i8], [3 x i8]* @.str, i64 0, i64 0), i32* %2)
  store i32 0, i32* %1, align 4
  br label %11

11:                                               ; preds = %32, %0
  %12 = load i32, i32* %1, align 4
  %13 = load i32, i32* %2, align 4
  %14 = icmp slt i32 %12, %13
  br i1 %14, label %15, label %35

15:                                               ; preds = %11
  store i32 0, i32* %3, align 4
  br label %16

16:                                               ; preds = %28, %15
  %17 = load i32, i32* %3, align 4
  %18 = load i32, i32* %2, align 4
  %19 = icmp slt i32 %17, %18
  br i1 %19, label %20, label %31

20:                                               ; preds = %16
  %21 = load i32, i32* %1, align 4
  %22 = sext i32 %21 to i64
  %23 = getelementptr inbounds [1000 x [1000 x i32]], [1000 x [1000 x i32]]* @cancer, i64 0, i64 %22
  %24 = load i32, i32* %3, align 4
  %25 = sext i32 %24 to i64
  %26 = getelementptr inbounds [1000 x i32], [1000 x i32]* %23, i64 0, i64 %25
  %27 = call i32 (i8*, ...) @__isoc99_scanf(i8* getelementptr inbounds ([3 x i8], [3 x i8]* @.str, i64 0, i64 0), i32* %26)
  br label %28

28:                                               ; preds = %20
  %29 = load i32, i32* %3, align 4
  %30 = add nsw i32 %29, 1
  store i32 %30, i32* %3, align 4
  br label %16

31:                                               ; preds = %16
  br label %32

32:                                               ; preds = %31
  %33 = load i32, i32* %1, align 4
  %34 = add nsw i32 %33, 1
  store i32 %34, i32* %1, align 4
  br label %11

35:                                               ; preds = %11
  store i32 0, i32* %1, align 4
  br label %36

36:                                               ; preds = %66, %35
  %37 = load i32, i32* %1, align 4
  %38 = load i32, i32* %2, align 4
  %39 = icmp slt i32 %37, %38
  br i1 %39, label %40, label %69

40:                                               ; preds = %36
  store i32 0, i32* %3, align 4
  br label %41

41:                                               ; preds = %58, %40
  %42 = load i32, i32* %3, align 4
  %43 = load i32, i32* %2, align 4
  %44 = icmp slt i32 %42, %43
  br i1 %44, label %45, label %61

45:                                               ; preds = %41
  %46 = load i32, i32* %1, align 4
  %47 = sext i32 %46 to i64
  %48 = getelementptr inbounds [1000 x [1000 x i32]], [1000 x [1000 x i32]]* @cancer, i64 0, i64 %47
  %49 = load i32, i32* %3, align 4
  %50 = sext i32 %49 to i64
  %51 = getelementptr inbounds [1000 x i32], [1000 x i32]* %48, i64 0, i64 %50
  %52 = load i32, i32* %51, align 4
  %53 = icmp eq i32 %52, 0
  br i1 %53, label %54, label %57

54:                                               ; preds = %45
  %55 = load i32, i32* %1, align 4
  store i32 %55, i32* %4, align 4
  %56 = load i32, i32* %3, align 4
  store i32 %56, i32* %6, align 4
  store i32 1, i32* %9, align 4
  br label %61

57:                                               ; preds = %45
  br label %58

58:                                               ; preds = %57
  %59 = load i32, i32* %3, align 4
  %60 = add nsw i32 %59, 1
  store i32 %60, i32* %3, align 4
  br label %41

61:                                               ; preds = %54, %41
  %62 = load i32, i32* %9, align 4
  %63 = icmp eq i32 %62, 1
  br i1 %63, label %64, label %65

64:                                               ; preds = %61
  store i32 0, i32* %9, align 4
  br label %69

65:                                               ; preds = %61
  br label %66

66:                                               ; preds = %65
  %67 = load i32, i32* %1, align 4
  %68 = add nsw i32 %67, 1
  store i32 %68, i32* %1, align 4
  br label %36

69:                                               ; preds = %64, %36
  %70 = load i32, i32* %2, align 4
  %71 = sub nsw i32 %70, 1
  store i32 %71, i32* %1, align 4
  br label %72

72:                                               ; preds = %102, %69
  %73 = load i32, i32* %1, align 4
  %74 = icmp sge i32 %73, 0
  br i1 %74, label %75, label %105

75:                                               ; preds = %72
  %76 = load i32, i32* %2, align 4
  %77 = sub nsw i32 %76, 1
  store i32 %77, i32* %3, align 4
  br label %78

78:                                               ; preds = %94, %75
  %79 = load i32, i32* %3, align 4
  %80 = icmp sge i32 %79, 0
  br i1 %80, label %81, label %97

81:                                               ; preds = %78
  %82 = load i32, i32* %1, align 4
  %83 = sext i32 %82 to i64
  %84 = getelementptr inbounds [1000 x [1000 x i32]], [1000 x [1000 x i32]]* @cancer, i64 0, i64 %83
  %85 = load i32, i32* %3, align 4
  %86 = sext i32 %85 to i64
  %87 = getelementptr inbounds [1000 x i32], [1000 x i32]* %84, i64 0, i64 %86
  %88 = load i32, i32* %87, align 4
  %89 = icmp eq i32 %88, 0
  br i1 %89, label %90, label %93

90:                                               ; preds = %81
  %91 = load i32, i32* %1, align 4
  store i32 %91, i32* %5, align 4
  %92 = load i32, i32* %3, align 4
  store i32 %92, i32* %7, align 4
  store i32 1, i32* %9, align 4
  br label %97

93:                                               ; preds = %81
  br label %94

94:                                               ; preds = %93
  %95 = load i32, i32* %3, align 4
  %96 = add nsw i32 %95, -1
  store i32 %96, i32* %3, align 4
  br label %78

97:                                               ; preds = %90, %78
  %98 = load i32, i32* %9, align 4
  %99 = icmp eq i32 %98, 1
  br i1 %99, label %100, label %101

100:                                              ; preds = %97
  br label %105

101:                                              ; preds = %97
  br label %102

102:                                              ; preds = %101
  %103 = load i32, i32* %1, align 4
  %104 = add nsw i32 %103, -1
  store i32 %104, i32* %1, align 4
  br label %72

105:                                              ; preds = %100, %72
  %106 = load i32, i32* %4, align 4
  store i32 %106, i32* %1, align 4
  br label %107

107:                                              ; preds = %134, %105
  %108 = load i32, i32* %1, align 4
  %109 = load i32, i32* %5, align 4
  %110 = icmp sle i32 %108, %109
  br i1 %110, label %111, label %137

111:                                              ; preds = %107
  %112 = load i32, i32* %6, align 4
  store i32 %112, i32* %3, align 4
  br label %113

113:                                              ; preds = %130, %111
  %114 = load i32, i32* %3, align 4
  %115 = load i32, i32* %7, align 4
  %116 = icmp sle i32 %114, %115
  br i1 %116, label %117, label %133

117:                                              ; preds = %113
  %118 = load i32, i32* %1, align 4
  %119 = sext i32 %118 to i64
  %120 = getelementptr inbounds [1000 x [1000 x i32]], [1000 x [1000 x i32]]* @cancer, i64 0, i64 %119
  %121 = load i32, i32* %3, align 4
  %122 = sext i32 %121 to i64
  %123 = getelementptr inbounds [1000 x i32], [1000 x i32]* %120, i64 0, i64 %122
  %124 = load i32, i32* %123, align 4
  %125 = icmp eq i32 %124, 255
  br i1 %125, label %126, label %129

126:                                              ; preds = %117
  %127 = load i32, i32* %8, align 4
  %128 = add nsw i32 %127, 1
  store i32 %128, i32* %8, align 4
  br label %129

129:                                              ; preds = %126, %117
  br label %130

130:                                              ; preds = %129
  %131 = load i32, i32* %3, align 4
  %132 = add nsw i32 %131, 1
  store i32 %132, i32* %3, align 4
  br label %113

133:                                              ; preds = %113
  br label %134

134:                                              ; preds = %133
  %135 = load i32, i32* %1, align 4
  %136 = add nsw i32 %135, 1
  store i32 %136, i32* %1, align 4
  br label %107

137:                                              ; preds = %107
  %138 = load i32, i32* %8, align 4
  %139 = call i32 (i8*, ...) @printf(i8* getelementptr inbounds ([3 x i8], [3 x i8]* @.str, i64 0, i64 0), i32 %138)
  ret void
}

declare dso_local i32 @__isoc99_scanf(i8*, ...) #1

declare dso_local i32 @printf(i8*, ...) #1


!llvm.module.flags = !{!0}
!llvm.ident = !{!1}

!0 = !{i32 1, !"wchar_size", i32 4}
!1 = !{!"clang version 10.0.0-4ubuntu1 "}
